target datalayout = "e-m:e-p270:32:32-p271:32:32-p272:64:64-i64:64-i128:128-f80:128-n8:16:32:64-S128"
target triple = "x86_64-pc-linux-gnu"

%struct.hvl_t = type { i64, ptr }

@H5_libterm_g = external global i8, align 1
@H5T_init_g = external global i8, align 1

; Function Attrs: nounwind uwtable
define internal ptr @H5T__vlen_mem_seq_getptr(ptr noundef %0) #0 {
  %2 = alloca ptr, align 8
  %3 = alloca %struct.hvl_t, align 8
  store ptr %0, ptr %2, align 8, !tbaa !38
  call void @llvm.lifetime.start.p0(i64 16, ptr %3) #9
  %4 = load i8, ptr @H5T_init_g, align 1, !tbaa !10, !range !12, !noundef !13
  %5 = trunc i8 %4 to i1
  br i1 %5, label %10, label %6

6:                                                ; preds = %1
  %7 = load i8, ptr @H5_libterm_g, align 1, !tbaa !10, !range !12, !noundef !13
  %8 = trunc i8 %7 to i1
  %9 = xor i1 %8, true
  br label %10

10:                                               ; preds = %6, %1
  %11 = phi i1 [ true, %1 ], [ %9, %6 ]
  %12 = xor i1 %11, true
  %13 = xor i1 %12, true
  %14 = zext i1 %13 to i32
  %15 = sext i32 %14 to i64
  %16 = call i64 @llvm.expect.i64(i64 %15, i64 1)
  %17 = icmp ne i64 %16, 0
  br i1 %17, label %18, label %20

18:                                               ; preds = %10
  %19 = load ptr, ptr %2, align 8, !tbaa !38
  call void @llvm.memcpy.p0.p0.i64(ptr align 8 %3, ptr align 1 %19, i64 16, i1 false)
  br label %20

20:                                               ; preds = %18, %10
  %21 = getelementptr inbounds nuw %struct.hvl_t, ptr %3, i32 0, i32 1
  %22 = load ptr, ptr %21, align 8, !tbaa !51
  call void @llvm.lifetime.end.p0(i64 16, ptr %3) #9
  ret ptr %22
}