; Function Attrs: mustprogress nofree norecurse nosync nounwind willreturn memory(read, inaccessiblemem: none) uwtable
define internal ptr @H5T__vlen_mem_seq_getptr(ptr noundef readonly captures(none) %0) #7 {
  %2 = load i8, ptr @H5T_init_g, align 1, !tbaa !3, !range !7, !noundef !8
  %3 = trunc nuw i8 %2 to i1
  %4 = load i8, ptr @H5_libterm_g, align 1, !range !7
  %5 = trunc nuw i8 %4 to i1
  %6 = xor i1 %5, true
  %7 = select i1 %3, i1 true, i1 %6
  br i1 %7, label %8, label %9, !prof !9

8:                                                ; preds = %1
  %.sroa.3.0..sroa_idx = getelementptr inbounds nuw i8, ptr %0, i64 8
  %.sroa.3.0.copyload = load ptr, ptr %.sroa.3.0..sroa_idx, align 1
  br label %9

9:                                                ; preds = %8, %1
  %.sroa.3.0 = phi ptr [ %.sroa.3.0.copyload, %8 ], [ undef, %1 ]
  ret ptr %.sroa.3.0
}